target datalayout = "e-m:e-p270:32:32-p271:32:32-p272:64:64-i64:64-i128:128-f80:128-n8:16:32:64-S128"
target triple = "x86_64-pc-linux-gnu"

%struct.Vec_Int_t_ = type { i32, i32, ptr }
%struct.Vec_Wec_t_ = type { i32, i32, ptr }

@.str.19 = private unnamed_addr constant [1 x i8] zeroinitializer, align 1
@.str.39 = private unnamed_addr constant [3 x i8] c"[]\00", align 1
@.str.40 = private unnamed_addr constant [9 x i8] c"[ \22%s\22 ]\00", align 1
@.str.41 = private unnamed_addr constant [4 x i8] c"%*s\00", align 1
@.str.42 = private unnamed_addr constant [3 x i8] c"[\0A\00", align 1
@.str.43 = private unnamed_addr constant [11 x i8] c"%*s\22%s\22%s\0A\00", align 1
@.str.44 = private unnamed_addr constant [2 x i8] c",\00", align 1
@.str.45 = private unnamed_addr constant [5 x i8] c"%*s]\00", align 1
@.str.46 = private unnamed_addr constant [4 x i8] c"%s\0A\00", align 1
@.str.47 = private unnamed_addr constant [3 x i8] c"{\0A\00", align 1
@.str.48 = private unnamed_addr constant [8 x i8] c"%*s\22%s\22\00", align 1
@.str.49 = private unnamed_addr constant [4 x i8] c" : \00", align 1
@.str.50 = private unnamed_addr constant [8 x i8] c"\22%s\22%s\0A\00", align 1
@.str.51 = private unnamed_addr constant [8 x i8] c"%*s}%s\0A\00", align 1

; Function Attrs: nounwind uwtable
define internal ptr @Vec_WecEntry(ptr noundef %0, i32 noundef %1) #0 {
  %3 = alloca ptr, align 8
  %4 = alloca i32, align 4
  store ptr %0, ptr %3, align 8
  store i32 %1, ptr %4, align 4
  %5 = load ptr, ptr %3, align 8
  %6 = getelementptr inbounds %struct.Vec_Wec_t_, ptr %5, i32 0, i32 2
  %7 = load ptr, ptr %6, align 8
  %8 = load i32, ptr %4, align 4
  %9 = sext i32 %8 to i64
  %10 = getelementptr inbounds %struct.Vec_Int_t_, ptr %7, i64 %9
  ret ptr %10
}

; Function Attrs: nounwind uwtable
define internal i32 @Abc_Lit2Var(i32 noundef %0) #0 {
  %2 = alloca i32, align 4
  store i32 %0, ptr %2, align 4
  %3 = load i32, ptr %2, align 4
  %4 = ashr i32 %3, 1
  ret i32 %4
}

; Function Attrs: nounwind uwtable
define internal i32 @Abc_LitIsCompl(i32 noundef %0) #0 {
  %2 = alloca i32, align 4
  store i32 %0, ptr %2, align 4
  %3 = load i32, ptr %2, align 4
  %4 = and i32 %3, 1
  ret i32 %4
}

; Function Attrs: nounwind uwtable
define internal ptr @Json_EntryNode(ptr noundef %0, i32 noundef %1) #0 {
  %3 = alloca ptr, align 8
  %4 = alloca i32, align 4
  store ptr %0, ptr %3, align 8
  store i32 %1, ptr %4, align 4
  %5 = load ptr, ptr %3, align 8
  %6 = load i32, ptr %4, align 4
  %7 = call i32 @Abc_Lit2Var(i32 noundef %6)
  %8 = call ptr @Vec_WecEntry(ptr noundef %5, i32 noundef %7)
  ret ptr %8
}

; Function Attrs: nounwind uwtable
define internal ptr @Json_EntryName(ptr noundef %0, i32 noundef %1) #0 {
  %3 = alloca ptr, align 8
  %4 = alloca i32, align 4
  store ptr %0, ptr %3, align 8
  store i32 %1, ptr %4, align 4
  %5 = load ptr, ptr %3, align 8
  %6 = load i32, ptr %4, align 4
  %7 = call i32 @Abc_Lit2Var(i32 noundef %6)
  %8 = call ptr @Abc_NamStr(ptr noundef %5, i32 noundef %7)
  ret ptr %8
}

; Function Attrs: nounwind uwtable
define internal i32 @Json_EntryIsName(i32 noundef %0) #0 {
  %2 = alloca i32, align 4
  store i32 %0, ptr %2, align 4
  %3 = load i32, ptr %2, align 4
  %4 = call i32 @Abc_LitIsCompl(i32 noundef %3)
  ret i32 %4
}

; Function Attrs: nounwind uwtable
define internal i32 @Vec_IntSize(ptr noundef %0) #0 {
  %2 = alloca ptr, align 8
  store ptr %0, ptr %2, align 8
  %3 = load ptr, ptr %2, align 8
  %4 = getelementptr inbounds %struct.Vec_Int_t_, ptr %3, i32 0, i32 1
  %5 = load i32, ptr %4, align 4
  ret i32 %5
}

; Function Attrs: nounwind uwtable
define internal i32 @Vec_IntEntry(ptr noundef %0, i32 noundef %1) #0 {
  %3 = alloca ptr, align 8
  %4 = alloca i32, align 4
  store ptr %0, ptr %3, align 8
  store i32 %1, ptr %4, align 4
  %5 = load ptr, ptr %3, align 8
  %6 = getelementptr inbounds %struct.Vec_Int_t_, ptr %5, i32 0, i32 2
  %7 = load ptr, ptr %6, align 8
  %8 = load i32, ptr %4, align 4
  %9 = sext i32 %8 to i64
  %10 = getelementptr inbounds i32, ptr %7, i64 %9
  %11 = load i32, ptr %10, align 4
  ret i32 %11
}

; Function Attrs: nounwind uwtable
define void @Json_Write_rec(ptr noundef %0, ptr noundef %1, ptr noundef %2, ptr noundef %3, i32 noundef %4, i32 noundef %5, i32 noundef %6) #0 {
  %8 = alloca ptr, align 8
  %9 = alloca ptr, align 8
  %10 = alloca ptr, align 8
  %11 = alloca ptr, align 8
  %12 = alloca i32, align 4
  %13 = alloca i32, align 4
  %14 = alloca i32, align 4
  %15 = alloca i32, align 4
  %16 = alloca i32, align 4
  %17 = alloca i32, align 4
  %18 = alloca i32, align 4
  store ptr %0, ptr %8, align 8
  store ptr %1, ptr %9, align 8
  store ptr %2, ptr %10, align 8
  store ptr %3, ptr %11, align 8
  store i32 %4, ptr %12, align 4
  store i32 %5, ptr %13, align 4
  store i32 %6, ptr %14, align 4
  %19 = load ptr, ptr %11, align 8
  %20 = call i32 @Vec_IntEntry(ptr noundef %19, i32 noundef 0)
  %21 = icmp ne i32 %20, 0
  br i1 %21, label %22, label %116

22:                                               ; preds = %7
  %23 = load ptr, ptr %11, align 8
  %24 = call i32 @Vec_IntSize(ptr noundef %23)
  %25 = icmp eq i32 %24, 1
  br i1 %25, label %26, label %29

26:                                               ; preds = %22
  %27 = load ptr, ptr %8, align 8
  %28 = call i32 (ptr, ptr, ...) @fprintf(ptr noundef %27, ptr noundef @.str.39) #9
  br label %110

29:                                               ; preds = %22
  %30 = load ptr, ptr %11, align 8
  %31 = call i32 @Vec_IntSize(ptr noundef %30)
  %32 = icmp eq i32 %31, 2
  br i1 %32, label %33, label %45

33:                                               ; preds = %29
  %34 = load ptr, ptr %11, align 8
  %35 = call i32 @Vec_IntEntry(ptr noundef %34, i32 noundef 1)
  %36 = call i32 @Json_EntryIsName(i32 noundef %35)
  %37 = icmp ne i32 %36, 0
  br i1 %37, label %38, label %45

38:                                               ; preds = %33
  %39 = load ptr, ptr %8, align 8
  %40 = load ptr, ptr %9, align 8
  %41 = load ptr, ptr %11, align 8
  %42 = call i32 @Vec_IntEntry(ptr noundef %41, i32 noundef 1)
  %43 = call ptr @Json_EntryName(ptr noundef %40, i32 noundef %42)
  %44 = call i32 (ptr, ptr, ...) @fprintf(ptr noundef %39, ptr noundef @.str.40, ptr noundef %43) #9
  br label %109

45:                                               ; preds = %33, %29
  %46 = load i32, ptr %14, align 4
  %47 = icmp ne i32 %46, 0
  br i1 %47, label %48, label %54

48:                                               ; preds = %45
  %49 = load ptr, ptr %8, align 8
  %50 = load i32, ptr %12, align 4
  %51 = sub nsw i32 %50, 1
  %52 = mul nsw i32 3, %51
  %53 = call i32 (ptr, ptr, ...) @fprintf(ptr noundef %49, ptr noundef @.str.41, i32 noundef %52, ptr noundef @.str.19) #9
  br label %54

54:                                               ; preds = %48, %45
  %55 = load ptr, ptr %8, align 8
  %56 = call i32 (ptr, ptr, ...) @fprintf(ptr noundef %55, ptr noundef @.str.42) #9
  store i32 1, ptr %15, align 4
  br label %57

57:                                               ; preds = %100, %54
  %58 = load i32, ptr %15, align 4
  %59 = load ptr, ptr %11, align 8
  %60 = call i32 @Vec_IntSize(ptr noundef %59)
  %61 = icmp slt i32 %58, %60
  br i1 %61, label %62, label %66

62:                                               ; preds = %57
  %63 = load ptr, ptr %11, align 8
  %64 = load i32, ptr %15, align 4
  %65 = call i32 @Vec_IntEntry(ptr noundef %63, i32 noundef %64)
  store i32 %65, ptr %16, align 4
  br label %66

66:                                               ; preds = %62, %57
  %67 = phi i1 [ false, %57 ], [ true, %62 ]
  br i1 %67, label %68, label %103

68:                                               ; preds = %66
  %69 = load i32, ptr %15, align 4
  %70 = load ptr, ptr %11, align 8
  %71 = call i32 @Vec_IntSize(ptr noundef %70)
  %72 = sub nsw i32 %71, 1
  %73 = icmp slt i32 %69, %72
  %74 = zext i1 %73 to i32
  store i32 %74, ptr %18, align 4
  %75 = load i32, ptr %16, align 4
  %76 = call i32 @Json_EntryIsName(i32 noundef %75)
  %77 = icmp ne i32 %76, 0
  br i1 %77, label %78, label %89

78:                                               ; preds = %68
  %79 = load ptr, ptr %8, align 8
  %80 = load i32, ptr %12, align 4
  %81 = mul nsw i32 3, %80
  %82 = load ptr, ptr %9, align 8
  %83 = load i32, ptr %16, align 4
  %84 = call ptr @Json_EntryName(ptr noundef %82, i32 noundef %83)
  %85 = load i32, ptr %18, align 4
  %86 = icmp ne i32 %85, 0
  %87 = select i1 %86, ptr @.str.44, ptr @.str.19
  %88 = call i32 (ptr, ptr, ...) @fprintf(ptr noundef %79, ptr noundef @.str.43, i32 noundef %81, ptr noundef @.str.19, ptr noundef %84, ptr noundef %87) #9
  br label %99

89:                                               ; preds = %68
  %90 = load ptr, ptr %8, align 8
  %91 = load ptr, ptr %9, align 8
  %92 = load ptr, ptr %10, align 8
  %93 = load ptr, ptr %10, align 8
  %94 = load i32, ptr %16, align 4
  %95 = call ptr @Json_EntryNode(ptr noundef %93, i32 noundef %94)
  %96 = load i32, ptr %12, align 4
  %97 = add nsw i32 %96, 1
  %98 = load i32, ptr %18, align 4
  call void @Json_Write_rec(ptr noundef %90, ptr noundef %91, ptr noundef %92, ptr noundef %95, i32 noundef %97, i32 noundef %98, i32 noundef 1)
  br label %99

99:                                               ; preds = %89, %78
  br label %100

100:                                              ; preds = %99
  %101 = load i32, ptr %15, align 4
  %102 = add nsw i32 %101, 1
  store i32 %102, ptr %15, align 4
  br label %57, !llvm.loop !7

103:                                              ; preds = %66
  %104 = load ptr, ptr %8, align 8
  %105 = load i32, ptr %12, align 4
  %106 = sub nsw i32 %105, 1
  %107 = mul nsw i32 3, %106
  %108 = call i32 (ptr, ptr, ...) @fprintf(ptr noundef %104, ptr noundef @.str.45, i32 noundef %107, ptr noundef @.str.19) #9
  br label %109

109:                                              ; preds = %103, %38
  br label %110

110:                                              ; preds = %109, %26
  %111 = load ptr, ptr %8, align 8
  %112 = load i32, ptr %13, align 4
  %113 = icmp ne i32 %112, 0
  %114 = select i1 %113, ptr @.str.44, ptr @.str.19
  %115 = call i32 (ptr, ptr, ...) @fprintf(ptr noundef %111, ptr noundef @.str.46, ptr noundef %114) #9
  br label %210

116:                                              ; preds = %7
  %117 = load i32, ptr %14, align 4
  %118 = icmp ne i32 %117, 0
  br i1 %118, label %119, label %125

119:                                              ; preds = %116
  %120 = load ptr, ptr %8, align 8
  %121 = load i32, ptr %12, align 4
  %122 = sub nsw i32 %121, 1
  %123 = mul nsw i32 3, %122
  %124 = call i32 (ptr, ptr, ...) @fprintf(ptr noundef %120, ptr noundef @.str.41, i32 noundef %123, ptr noundef @.str.19) #9
  br label %125

125:                                              ; preds = %119, %116
  %126 = load ptr, ptr %8, align 8
  %127 = call i32 (ptr, ptr, ...) @fprintf(ptr noundef %126, ptr noundef @.str.47) #9
  store i32 1, ptr %15, align 4
  br label %128

128:                                              ; preds = %198, %125
  %129 = load i32, ptr %15, align 4
  %130 = add nsw i32 %129, 1
  %131 = load ptr, ptr %11, align 8
  %132 = call i32 @Vec_IntSize(ptr noundef %131)
  %133 = icmp slt i32 %130, %132
  br i1 %133, label %134, label %143

134:                                              ; preds = %128
  %135 = load ptr, ptr %11, align 8
  %136 = load i32, ptr %15, align 4
  %137 = call i32 @Vec_IntEntry(ptr noundef %135, i32 noundef %136)
  store i32 %137, ptr %16, align 4
  br i1 true, label %138, label %143

138:                                              ; preds = %134
  %139 = load ptr, ptr %11, align 8
  %140 = load i32, ptr %15, align 4
  %141 = add nsw i32 %140, 1
  %142 = call i32 @Vec_IntEntry(ptr noundef %139, i32 noundef %141)
  store i32 %142, ptr %17, align 4
  br label %143

143:                                              ; preds = %138, %134, %128
  %144 = phi i1 [ false, %134 ], [ false, %128 ], [ true, %138 ]
  br i1 %144, label %145, label %201

145:                                              ; preds = %143
  %146 = load i32, ptr %15, align 4
  %147 = load ptr, ptr %11, align 8
  %148 = call i32 @Vec_IntSize(ptr noundef %147)
  %149 = sub nsw i32 %148, 3
  %150 = icmp slt i32 %146, %149
  %151 = zext i1 %150 to i32
  store i32 %151, ptr %18, align 4
  %152 = load i32, ptr %16, align 4
  %153 = call i32 @Json_EntryIsName(i32 noundef %152)
  %154 = icmp ne i32 %153, 0
  br i1 %154, label %155, label %163

155:                                              ; preds = %145
  %156 = load ptr, ptr %8, align 8
  %157 = load i32, ptr %12, align 4
  %158 = mul nsw i32 3, %157
  %159 = load ptr, ptr %9, align 8
  %160 = load i32, ptr %16, align 4
  %161 = call ptr @Json_EntryName(ptr noundef %159, i32 noundef %160)
  %162 = call i32 (ptr, ptr, ...) @fprintf(ptr noundef %156, ptr noundef @.str.48, i32 noundef %158, ptr noundef @.str.19, ptr noundef %161) #9
  br label %172

163:                                              ; preds = %145
  %164 = load ptr, ptr %8, align 8
  %165 = load ptr, ptr %9, align 8
  %166 = load ptr, ptr %10, align 8
  %167 = load ptr, ptr %10, align 8
  %168 = load i32, ptr %16, align 4
  %169 = call ptr @Json_EntryNode(ptr noundef %167, i32 noundef %168)
  %170 = load i32, ptr %12, align 4
  %171 = add nsw i32 %170, 1
  call void @Json_Write_rec(ptr noundef %164, ptr noundef %165, ptr noundef %166, ptr noundef %169, i32 noundef %171, i32 noundef 0, i32 noundef 1)
  br label %172

172:                                              ; preds = %163, %155
  %173 = load ptr, ptr %8, align 8
  %174 = call i32 (ptr, ptr, ...) @fprintf(ptr noundef %173, ptr noundef @.str.49) #9
  %175 = load i32, ptr %17, align 4
  %176 = call i32 @Json_EntryIsName(i32 noundef %175)
  %177 = icmp ne i32 %176, 0
  br i1 %177, label %178, label %187

178:                                              ; preds = %172
  %179 = load ptr, ptr %8, align 8
  %180 = load ptr, ptr %9, align 8
  %181 = load i32, ptr %17, align 4
  %182 = call ptr @Json_EntryName(ptr noundef %180, i32 noundef %181)
  %183 = load i32, ptr %18, align 4
  %184 = icmp ne i32 %183, 0
  %185 = select i1 %184, ptr @.str.44, ptr @.str.19
  %186 = call i32 (ptr, ptr, ...) @fprintf(ptr noundef %179, ptr noundef @.str.50, ptr noundef %182, ptr noundef %185) #9
  br label %197

187:                                              ; preds = %172
  %188 = load ptr, ptr %8, align 8
  %189 = load ptr, ptr %9, align 8
  %190 = load ptr, ptr %10, align 8
  %191 = load ptr, ptr %10, align 8
  %192 = load i32, ptr %17, align 4
  %193 = call ptr @Json_EntryNode(ptr noundef %191, i32 noundef %192)
  %194 = load i32, ptr %12, align 4
  %195 = add nsw i32 %194, 1
  %196 = load i32, ptr %18, align 4
  call void @Json_Write_rec(ptr noundef %188, ptr noundef %189, ptr noundef %190, ptr noundef %193, i32 noundef %195, i32 noundef %196, i32 noundef 0)
  br label %197

197:                                              ; preds = %187, %178
  br label %198

198:                                              ; preds = %197
  %199 = load i32, ptr %15, align 4
  %200 = add nsw i32 %199, 2
  store i32 %200, ptr %15, align 4
  br label %128, !llvm.loop !8

201:                                              ; preds = %143
  %202 = load ptr, ptr %8, align 8
  %203 = load i32, ptr %12, align 4
  %204 = sub nsw i32 %203, 1
  %205 = mul nsw i32 3, %204
  %206 = load i32, ptr %13, align 4
  %207 = icmp ne i32 %206, 0
  %208 = select i1 %207, ptr @.str.44, ptr @.str.19
  %209 = call i32 (ptr, ptr, ...) @fprintf(ptr noundef %202, ptr noundef @.str.51, i32 noundef %205, ptr noundef @.str.19, ptr noundef %208) #9
  br label %210

210:                                              ; preds = %201, %110
  ret void
}