; Function Attrs: nounwind uwtable
define void @Json_Write_rec(ptr noundef %0, ptr noundef %1, ptr noundef %2, ptr noundef readonly captures(none) %3, i32 noundef %4, i32 noundef %5, i32 noundef %6) local_unnamed_addr #2 {
  %8 = getelementptr i8, ptr %3, i64 8
  %.val90 = load ptr, ptr %8, align 8
  %9 = load i32, ptr %.val90, align 4
  %.not = icmp eq i32 %9, 0
  br i1 %.not, label %58, label %10

10:                                               ; preds = %7
  %11 = getelementptr i8, ptr %3, i64 4
  %.val96 = load i32, ptr %11, align 4
  switch i32 %.val96, label %22 [
    i32 1, label %12
    i32 2, label %14
  ]

12:                                               ; preds = %10
  %13 = tail call i64 @fwrite(ptr nonnull @.str.39, i64 2, i64 1, ptr %0)
  br label %55

14:                                               ; preds = %10
  %15 = getelementptr inbounds nuw i8, ptr %.val90, i64 4
  %16 = load i32, ptr %15, align 4
  %17 = and i32 %16, 1
  %.not82 = icmp eq i32 %17, 0
  br i1 %.not82, label %22, label %18

18:                                               ; preds = %14
  %19 = ashr i32 %16, 1
  %20 = tail call ptr @Abc_NamStr(ptr noundef %1, i32 noundef %19) #13
  %21 = tail call i32 (ptr, ptr, ...) @fprintf(ptr noundef %0, ptr noundef nonnull @.str.40, ptr noundef %20) #13
  br label %55

22:                                               ; preds = %10, %14
  %.not83 = icmp eq i32 %6, 0
  br i1 %.not83, label %27, label %23

23:                                               ; preds = %22
  %24 = mul i32 %4, 3
  %25 = add i32 %24, -3
  %26 = tail call i32 (ptr, ptr, ...) @fprintf(ptr noundef %0, ptr noundef nonnull @.str.41, i32 noundef %25, ptr noundef nonnull @.str.19) #13
  br label %27

27:                                               ; preds = %23, %22
  %28 = tail call i64 @fwrite(ptr nonnull @.str.42, i64 2, i64 1, ptr %0)
  %.val94100 = load i32, ptr %11, align 4
  %29 = icmp sgt i32 %.val94100, 1
  %30 = mul i32 %4, 3
  br i1 %29, label %.lr.ph, label %.critedge

.lr.ph:                                           ; preds = %27
  %31 = getelementptr i8, ptr %2, i64 8
  %32 = add nsw i32 %4, 1
  br label %33

33:                                               ; preds = %.lr.ph, %50
  %indvars.iv = phi i64 [ 1, %.lr.ph ], [ %indvars.iv.next, %50 ]
  %.val94102 = phi i32 [ %.val94100, %.lr.ph ], [ %.val94, %50 ]
  %.val87 = load ptr, ptr %8, align 8
  %34 = getelementptr inbounds nuw i32, ptr %.val87, i64 %indvars.iv
  %35 = load i32, ptr %34, align 4
  %36 = add nsw i32 %.val94102, -1
  %37 = sext i32 %36 to i64
  %38 = icmp slt i64 %indvars.iv, %37
  %39 = and i32 %35, 1
  %.not84 = icmp eq i32 %39, 0
  br i1 %.not84, label %45, label %40

40:                                               ; preds = %33
  %41 = ashr i32 %35, 1
  %42 = tail call ptr @Abc_NamStr(ptr noundef %1, i32 noundef %41) #13
  %43 = select i1 %38, ptr @.str.44, ptr @.str.19
  %44 = tail call i32 (ptr, ptr, ...) @fprintf(ptr noundef %0, ptr noundef nonnull @.str.43, i32 noundef %30, ptr noundef nonnull @.str.19, ptr noundef %42, ptr noundef nonnull %43) #13
  br label %50

45:                                               ; preds = %33
  %46 = zext i1 %38 to i32
  %.val99 = load ptr, ptr %31, align 8
  %47 = ashr exact i32 %35, 1
  %48 = sext i32 %47 to i64
  %49 = getelementptr inbounds %struct.Vec_Int_t_, ptr %.val99, i64 %48
  tail call void @Json_Write_rec(ptr noundef %0, ptr noundef %1, ptr noundef %2, ptr noundef %49, i32 noundef %32, i32 noundef %46, i32 noundef 1)
  br label %50

50:                                               ; preds = %40, %45
  %indvars.iv.next = add nuw nsw i64 %indvars.iv, 1
  %.val94 = load i32, ptr %11, align 4
  %51 = sext i32 %.val94 to i64
  %52 = icmp slt i64 %indvars.iv.next, %51
  br i1 %52, label %33, label %.critedge, !llvm.loop !7

.critedge:                                        ; preds = %50, %27
  %53 = add i32 %30, -3
  %54 = tail call i32 (ptr, ptr, ...) @fprintf(ptr noundef %0, ptr noundef nonnull @.str.45, i32 noundef %53, ptr noundef nonnull @.str.19) #13
  br label %55

55:                                               ; preds = %18, %.critedge, %12
  %.not85 = icmp eq i32 %5, 0
  %56 = select i1 %.not85, ptr @.str.19, ptr @.str.44
  %57 = tail call i32 (ptr, ptr, ...) @fprintf(ptr noundef %0, ptr noundef nonnull @.str.46, ptr noundef nonnull %56) #13
  br label %107

58:                                               ; preds = %7
  %.not78 = icmp eq i32 %6, 0
  br i1 %.not78, label %63, label %59

59:                                               ; preds = %58
  %60 = mul i32 %4, 3
  %61 = add i32 %60, -3
  %62 = tail call i32 (ptr, ptr, ...) @fprintf(ptr noundef %0, ptr noundef nonnull @.str.41, i32 noundef %61, ptr noundef nonnull @.str.19) #13
  br label %63

63:                                               ; preds = %59, %58
  %64 = tail call i64 @fwrite(ptr nonnull @.str.47, i64 2, i64 1, ptr %0)
  %65 = getelementptr i8, ptr %3, i64 4
  %.val92103 = load i32, ptr %65, align 4
  %66 = icmp sgt i32 %.val92103, 2
  %67 = mul i32 %4, 3
  br i1 %66, label %.lr.ph106, label %.critedge2

.lr.ph106:                                        ; preds = %63
  %68 = getelementptr i8, ptr %2, i64 8
  %69 = add nsw i32 %4, 1
  br label %70

70:                                               ; preds = %.lr.ph106, %100
  %indvars.iv110 = phi i64 [ 1, %.lr.ph106 ], [ %indvars.iv.next111, %100 ]
  %indvars.iv108 = phi i64 [ 2, %.lr.ph106 ], [ %indvars.iv.next109, %100 ]
  %.val92105 = phi i32 [ %.val92103, %.lr.ph106 ], [ %.val92, %100 ]
  %.val86 = load ptr, ptr %8, align 8
  %71 = getelementptr inbounds nuw i32, ptr %.val86, i64 %indvars.iv110
  %72 = load i32, ptr %71, align 4
  %73 = getelementptr inbounds nuw i32, ptr %.val86, i64 %indvars.iv108
  %74 = load i32, ptr %73, align 4
  %75 = add nsw i32 %.val92105, -3
  %76 = sext i32 %75 to i64
  %77 = icmp slt i64 %indvars.iv110, %76
  %78 = zext i1 %77 to i32
  %79 = and i32 %72, 1
  %.not80 = icmp eq i32 %79, 0
  br i1 %.not80, label %84, label %80

80:                                               ; preds = %70
  %81 = ashr i32 %72, 1
  %82 = tail call ptr @Abc_NamStr(ptr noundef %1, i32 noundef %81) #13
  %83 = tail call i32 (ptr, ptr, ...) @fprintf(ptr noundef %0, ptr noundef nonnull @.str.48, i32 noundef %67, ptr noundef nonnull @.str.19, ptr noundef %82) #13
  br label %88

84:                                               ; preds = %70
  %.val98 = load ptr, ptr %68, align 8
  %85 = ashr exact i32 %72, 1
  %86 = sext i32 %85 to i64
  %87 = getelementptr inbounds %struct.Vec_Int_t_, ptr %.val98, i64 %86
  tail call void @Json_Write_rec(ptr noundef %0, ptr noundef %1, ptr noundef %2, ptr noundef %87, i32 noundef %69, i32 noundef 0, i32 noundef 1)
  br label %88

88:                                               ; preds = %84, %80
  %89 = tail call i64 @fwrite(ptr nonnull @.str.49, i64 3, i64 1, ptr %0)
  %90 = and i32 %74, 1
  %.not81 = icmp eq i32 %90, 0
  br i1 %.not81, label %96, label %91

91:                                               ; preds = %88
  %92 = ashr i32 %74, 1
  %93 = tail call ptr @Abc_NamStr(ptr noundef %1, i32 noundef %92) #13
  %94 = select i1 %77, ptr @.str.44, ptr @.str.19
  %95 = tail call i32 (ptr, ptr, ...) @fprintf(ptr noundef %0, ptr noundef nonnull @.str.50, ptr noundef %93, ptr noundef nonnull %94) #13
  br label %100

96:                                               ; preds = %88
  %.val97 = load ptr, ptr %68, align 8
  %97 = ashr exact i32 %74, 1
  %98 = sext i32 %97 to i64
  %99 = getelementptr inbounds %struct.Vec_Int_t_, ptr %.val97, i64 %98
  tail call void @Json_Write_rec(ptr noundef %0, ptr noundef %1, ptr noundef %2, ptr noundef %99, i32 noundef %69, i32 noundef %78, i32 noundef 0)
  br label %100

100:                                              ; preds = %91, %96
  %indvars.iv.next111 = add nuw nsw i64 %indvars.iv110, 2
  %.val92 = load i32, ptr %65, align 4
  %101 = trunc i64 %indvars.iv110 to i32
  %102 = add i32 %101, 3
  %103 = icmp slt i32 %102, %.val92
  %indvars.iv.next109 = add nuw i64 %indvars.iv108, 2
  br i1 %103, label %70, label %.critedge2, !llvm.loop !8

.critedge2:                                       ; preds = %100, %63
  %104 = add i32 %67, -3
  %.not79 = icmp eq i32 %5, 0
  %105 = select i1 %.not79, ptr @.str.19, ptr @.str.44
  %106 = tail call i32 (ptr, ptr, ...) @fprintf(ptr noundef %0, ptr noundef nonnull @.str.51, i32 noundef %104, ptr noundef nonnull @.str.19, ptr noundef nonnull %105) #13
  br label %107

107:                                              ; preds = %.critedge2, %55
  ret void
}